; Function Attrs: mustprogress uwtable
define void @_ZN21PreferenceEditorFrame38on_modulePreferencesToolButton_clickedEv(ptr noundef nonnull align 8 dereferenceable(120) %0) local_unnamed_addr #0 align 2 personality ptr @__gxx_personality_v0 {
  %2 = alloca %class.QString, align 16
  %3 = alloca %class.QString, align 16
  %4 = getelementptr inbounds i8, ptr %0, i64 64
  %5 = load ptr, ptr %4, align 8
  %.not = icmp eq ptr %5, null
  br i1 %.not, label %_ZN7QStringD2Ev.exit, label %6

6:                                                ; preds = %1
  %7 = load ptr, ptr %5, align 8
  call void @llvm.lifetime.start.p0(i64 24, ptr nonnull %2)
  %.not.i.i = icmp eq ptr %7, null
  br i1 %.not.i.i, label %_ZN7QStringC2EPKc.exit, label %.split.i.i

.split.i.i:                                       ; preds = %6
  %8 = tail call noundef i64 @strlen(ptr noundef nonnull dereferenceable(1) %7) #15
  br label %_ZN7QStringC2EPKc.exit

_ZN7QStringC2EPKc.exit:                           ; preds = %6, %.split.i.i
  %.sink5.i.i = phi i64 [ %8, %.split.i.i ], [ 0, %6 ]
  call void @_ZN7QString8fromUtf8E14QByteArrayView(ptr dead_on_unwind nonnull writable sret(%class.QString) align 8 %2, i64 %.sink5.i.i, ptr %7)
  %9 = load <2 x ptr>, ptr %2, align 16
  store <2 x ptr> %9, ptr %3, align 16
  %10 = getelementptr inbounds i8, ptr %3, i64 16
  %11 = getelementptr inbounds i8, ptr %2, i64 16
  %12 = load i64, ptr %11, align 16
  store i64 %12, ptr %10, align 16
  call void @llvm.lifetime.end.p0(i64 24, ptr nonnull %2)
  invoke void @_ZN21PreferenceEditorFrame23showProtocolPreferencesE7QString(ptr noundef nonnull align 8 dereferenceable(120) %0, ptr noundef nonnull %3)
          to label %13 unwind label %18

13:                                               ; preds = %_ZN7QStringC2EPKc.exit
  %14 = load ptr, ptr %3, align 16
  %.not.i.i.i = icmp eq ptr %14, null
  br i1 %.not.i.i.i, label %_ZN7QStringD2Ev.exit, label %_ZN17QArrayDataPointerIDsE5derefEv.exit.i.i

_ZN17QArrayDataPointerIDsE5derefEv.exit.i.i:      ; preds = %13
  %15 = atomicrmw sub ptr %14, i32 1 seq_cst, align 4
  %.not.i.i2 = icmp eq i32 %15, 1
  br i1 %.not.i.i2, label %16, label %_ZN7QStringD2Ev.exit

16:                                               ; preds = %_ZN17QArrayDataPointerIDsE5derefEv.exit.i.i
  %17 = load ptr, ptr %3, align 16
  call void @_ZN10QArrayData10deallocateEPS_xx(ptr noundef %17, i64 noundef 2, i64 noundef 8) #15
  br label %_ZN7QStringD2Ev.exit

18:                                               ; preds = %_ZN7QStringC2EPKc.exit
  %19 = landingpad { ptr, i32 }
          cleanup
  %20 = load ptr, ptr %3, align 16
  %.not.i.i.i3 = icmp eq ptr %20, null
  br i1 %.not.i.i.i3, label %_ZN7QStringD2Ev.exit6, label %_ZN17QArrayDataPointerIDsE5derefEv.exit.i.i4

_ZN17QArrayDataPointerIDsE5derefEv.exit.i.i4:     ; preds = %18
  %21 = atomicrmw sub ptr %20, i32 1 seq_cst, align 4
  %.not.i.i5 = icmp eq i32 %21, 1
  br i1 %.not.i.i5, label %22, label %_ZN7QStringD2Ev.exit6

22:                                               ; preds = %_ZN17QArrayDataPointerIDsE5derefEv.exit.i.i4
  %23 = load ptr, ptr %3, align 16
  call void @_ZN10QArrayData10deallocateEPS_xx(ptr noundef %23, i64 noundef 2, i64 noundef 8) #15
  br label %_ZN7QStringD2Ev.exit6

_ZN7QStringD2Ev.exit6:                            ; preds = %18, %_ZN17QArrayDataPointerIDsE5derefEv.exit.i.i4, %22
  resume { ptr, i32 } %19

_ZN7QStringD2Ev.exit:                             ; preds = %16, %_ZN17QArrayDataPointerIDsE5derefEv.exit.i.i, %13, %1
  %24 = getelementptr inbounds i8, ptr %0, i64 112
  call void @llvm.memset.p0.i64(ptr noundef nonnull align 8 dereferenceable(16) %4, i8 0, i64 16, i1 false)
  %25 = load ptr, ptr %24, align 8
  call void @wmem_free(ptr noundef null, ptr noundef %25)
  store ptr null, ptr %24, align 8
  call void @_ZN14AccordionFrame12animatedHideEv(ptr noundef nonnull align 8 dereferenceable(56) %0)
  ret void
}